; ModuleID = '46/2368.c'
source_filename = "46/2368.c"
target datalayout = "e-m:e-p270:32:32-p271:32:32-p272:64:64-i64:64-f80:128-n8:16:32:64-S128"
target triple = "x86_64-pc-linux-gnu"

@.str = private unnamed_addr constant [5 x i8] c"%d%d\00", align 1
@.str.1 = private unnamed_addr constant [3 x i8] c"%d\00", align 1
@.str.2 = private unnamed_addr constant [4 x i8] c"%d\0A\00", align 1

; Function Attrs: noinline nounwind uwtable
define dso_local i32 @main() #0 {
  %1 = alloca i32, align 4
  %2 = alloca i32, align 4
  %3 = alloca i32, align 4
  %4 = alloca i32, align 4
  %5 = alloca i32, align 4
  %6 = alloca i32, align 4
  %7 = alloca i32, align 4
  %8 = alloca i32, align 4
  %9 = alloca i32, align 4
  %10 = alloca [100 x [100 x i32]], align 16
  store i32 0, i32* %1, align 4
  %11 = call i32 (i8*, ...) @__isoc99_scanf(i8* getelementptr inbounds ([5 x i8], [5 x i8]* @.str, i64 0, i64 0), i32* %4, i32* %5)
  store i32 1, i32* %2, align 4
  br label %12

12:                                               ; preds = %33, %0
  %13 = load i32, i32* %2, align 4
  %14 = load i32, i32* %4, align 4
  %15 = icmp sle i32 %13, %14
  br i1 %15, label %16, label %36

16:                                               ; preds = %12
  store i32 1, i32* %3, align 4
  br label %17

17:                                               ; preds = %29, %16
  %18 = load i32, i32* %3, align 4
  %19 = load i32, i32* %5, align 4
  %20 = icmp sle i32 %18, %19
  br i1 %20, label %21, label %32

21:                                               ; preds = %17
  %22 = load i32, i32* %2, align 4
  %23 = sext i32 %22 to i64
  %24 = getelementptr inbounds [100 x [100 x i32]], [100 x [100 x i32]]* %10, i64 0, i64 %23
  %25 = load i32, i32* %3, align 4
  %26 = sext i32 %25 to i64
  %27 = getelementptr inbounds [100 x i32], [100 x i32]* %24, i64 0, i64 %26
  %28 = call i32 (i8*, ...) @__isoc99_scanf(i8* getelementptr inbounds ([3 x i8], [3 x i8]* @.str.1, i64 0, i64 0), i32* %27)
  br label %29

29:                                               ; preds = %21
  %30 = load i32, i32* %3, align 4
  %31 = add nsw i32 %30, 1
  store i32 %31, i32* %3, align 4
  br label %17

32:                                               ; preds = %17
  br label %33

33:                                               ; preds = %32
  %34 = load i32, i32* %2, align 4
  %35 = add nsw i32 %34, 1
  store i32 %35, i32* %2, align 4
  br label %12

36:                                               ; preds = %12
  %37 = load i32, i32* %4, align 4
  store i32 %37, i32* %7, align 4
  store i32 1, i32* %6, align 4
  %38 = load i32, i32* %5, align 4
  store i32 %38, i32* %9, align 4
  store i32 1, i32* %8, align 4
  br label %39

39:                                               ; preds = %36, %172
  %40 = load i32, i32* %7, align 4
  %41 = load i32, i32* %6, align 4
  %42 = icmp slt i32 %40, %41
  br i1 %42, label %47, label %43

43:                                               ; preds = %39
  %44 = load i32, i32* %9, align 4
  %45 = load i32, i32* %8, align 4
  %46 = icmp slt i32 %44, %45
  br i1 %46, label %47, label %48

47:                                               ; preds = %43, %39
  br label %181

48:                                               ; preds = %43
  %49 = load i32, i32* %7, align 4
  %50 = load i32, i32* %6, align 4
  %51 = icmp eq i32 %49, %50
  br i1 %51, label %52, label %71

52:                                               ; preds = %48
  %53 = load i32, i32* %8, align 4
  store i32 %53, i32* %3, align 4
  br label %54

54:                                               ; preds = %67, %52
  %55 = load i32, i32* %3, align 4
  %56 = load i32, i32* %9, align 4
  %57 = icmp sle i32 %55, %56
  br i1 %57, label %58, label %70

58:                                               ; preds = %54
  %59 = load i32, i32* %6, align 4
  %60 = sext i32 %59 to i64
  %61 = getelementptr inbounds [100 x [100 x i32]], [100 x [100 x i32]]* %10, i64 0, i64 %60
  %62 = load i32, i32* %3, align 4
  %63 = sext i32 %62 to i64
  %64 = getelementptr inbounds [100 x i32], [100 x i32]* %61, i64 0, i64 %63
  %65 = load i32, i32* %64, align 4
  %66 = call i32 (i8*, ...) @printf(i8* getelementptr inbounds ([4 x i8], [4 x i8]* @.str.2, i64 0, i64 0), i32 %65)
  br label %67

67:                                               ; preds = %58
  %68 = load i32, i32* %3, align 4
  %69 = add nsw i32 %68, 1
  store i32 %69, i32* %3, align 4
  br label %54

70:                                               ; preds = %54
  br label %171

71:                                               ; preds = %48
  %72 = load i32, i32* %9, align 4
  %73 = load i32, i32* %8, align 4
  %74 = icmp eq i32 %72, %73
  br i1 %74, label %75, label %94

75:                                               ; preds = %71
  %76 = load i32, i32* %6, align 4
  store i32 %76, i32* %2, align 4
  br label %77

77:                                               ; preds = %90, %75
  %78 = load i32, i32* %2, align 4
  %79 = load i32, i32* %7, align 4
  %80 = icmp sle i32 %78, %79
  br i1 %80, label %81, label %93

81:                                               ; preds = %77
  %82 = load i32, i32* %2, align 4
  %83 = sext i32 %82 to i64
  %84 = getelementptr inbounds [100 x [100 x i32]], [100 x [100 x i32]]* %10, i64 0, i64 %83
  %85 = load i32, i32* %8, align 4
  %86 = sext i32 %85 to i64
  %87 = getelementptr inbounds [100 x i32], [100 x i32]* %84, i64 0, i64 %86
  %88 = load i32, i32* %87, align 4
  %89 = call i32 (i8*, ...) @printf(i8* getelementptr inbounds ([4 x i8], [4 x i8]* @.str.2, i64 0, i64 0), i32 %88)
  br label %90

90:                                               ; preds = %81
  %91 = load i32, i32* %2, align 4
  %92 = add nsw i32 %91, 1
  store i32 %92, i32* %2, align 4
  br label %77

93:                                               ; preds = %77
  br label %170

94:                                               ; preds = %71
  %95 = load i32, i32* %8, align 4
  store i32 %95, i32* %3, align 4
  br label %96

96:                                               ; preds = %109, %94
  %97 = load i32, i32* %3, align 4
  %98 = load i32, i32* %9, align 4
  %99 = icmp sle i32 %97, %98
  br i1 %99, label %100, label %112

100:                                              ; preds = %96
  %101 = load i32, i32* %6, align 4
  %102 = sext i32 %101 to i64
  %103 = getelementptr inbounds [100 x [100 x i32]], [100 x [100 x i32]]* %10, i64 0, i64 %102
  %104 = load i32, i32* %3, align 4
  %105 = sext i32 %104 to i64
  %106 = getelementptr inbounds [100 x i32], [100 x i32]* %103, i64 0, i64 %105
  %107 = load i32, i32* %106, align 4
  %108 = call i32 (i8*, ...) @printf(i8* getelementptr inbounds ([4 x i8], [4 x i8]* @.str.2, i64 0, i64 0), i32 %107)
  br label %109

109:                                              ; preds = %100
  %110 = load i32, i32* %3, align 4
  %111 = add nsw i32 %110, 1
  store i32 %111, i32* %3, align 4
  br label %96

112:                                              ; preds = %96
  %113 = load i32, i32* %6, align 4
  %114 = add nsw i32 %113, 1
  store i32 %114, i32* %2, align 4
  br label %115

115:                                              ; preds = %128, %112
  %116 = load i32, i32* %2, align 4
  %117 = load i32, i32* %7, align 4
  %118 = icmp sle i32 %116, %117
  br i1 %118, label %119, label %131

119:                                              ; preds = %115
  %120 = load i32, i32* %2, align 4
  %121 = sext i32 %120 to i64
  %122 = getelementptr inbounds [100 x [100 x i32]], [100 x [100 x i32]]* %10, i64 0, i64 %121
  %123 = load i32, i32* %9, align 4
  %124 = sext i32 %123 to i64
  %125 = getelementptr inbounds [100 x i32], [100 x i32]* %122, i64 0, i64 %124
  %126 = load i32, i32* %125, align 4
  %127 = call i32 (i8*, ...) @printf(i8* getelementptr inbounds ([4 x i8], [4 x i8]* @.str.2, i64 0, i64 0), i32 %126)
  br label %128

128:                                              ; preds = %119
  %129 = load i32, i32* %2, align 4
  %130 = add nsw i32 %129, 1
  store i32 %130, i32* %2, align 4
  br label %115

131:                                              ; preds = %115
  %132 = load i32, i32* %9, align 4
  %133 = sub nsw i32 %132, 1
  store i32 %133, i32* %3, align 4
  br label %134

134:                                              ; preds = %147, %131
  %135 = load i32, i32* %3, align 4
  %136 = load i32, i32* %8, align 4
  %137 = icmp sge i32 %135, %136
  br i1 %137, label %138, label %150

138:                                              ; preds = %134
  %139 = load i32, i32* %7, align 4
  %140 = sext i32 %139 to i64
  %141 = getelementptr inbounds [100 x [100 x i32]], [100 x [100 x i32]]* %10, i64 0, i64 %140
  %142 = load i32, i32* %3, align 4
  %143 = sext i32 %142 to i64
  %144 = getelementptr inbounds [100 x i32], [100 x i32]* %141, i64 0, i64 %143
  %145 = load i32, i32* %144, align 4
  %146 = call i32 (i8*, ...) @printf(i8* getelementptr inbounds ([4 x i8], [4 x i8]* @.str.2, i64 0, i64 0), i32 %145)
  br label %147

147:                                              ; preds = %138
  %148 = load i32, i32* %3, align 4
  %149 = add nsw i32 %148, -1
  store i32 %149, i32* %3, align 4
  br label %134

150:                                              ; preds = %134
  %151 = load i32, i32* %7, align 4
  %152 = sub nsw i32 %151, 1
  store i32 %152, i32* %2, align 4
  br label %153

153:                                              ; preds = %166, %150
  %154 = load i32, i32* %2, align 4
  %155 = load i32, i32* %6, align 4
  %156 = icmp sgt i32 %154, %155
  br i1 %156, label %157, label %169

157:                                              ; preds = %153
  %158 = load i32, i32* %2, align 4
  %159 = sext i32 %158 to i64
  %160 = getelementptr inbounds [100 x [100 x i32]], [100 x [100 x i32]]* %10, i64 0, i64 %159
  %161 = load i32, i32* %8, align 4
  %162 = sext i32 %161 to i64
  %163 = getelementptr inbounds [100 x i32], [100 x i32]* %160, i64 0, i64 %162
  %164 = load i32, i32* %163, align 4
  %165 = call i32 (i8*, ...) @printf(i8* getelementptr inbounds ([4 x i8], [4 x i8]* @.str.2, i64 0, i64 0), i32 %164)
  br label %166

166:                                              ; preds = %157
  %167 = load i32, i32* %2, align 4
  %168 = add nsw i32 %167, -1
  store i32 %168, i32* %2, align 4
  br label %153

169:                                              ; preds = %153
  br label %170

170:                                              ; preds = %169, %93
  br label %171

171:                                              ; preds = %170, %70
  br label %172

172:                                              ; preds = %171
  %173 = load i32, i32* %7, align 4
  %174 = sub nsw i32 %173, 1
  store i32 %174, i32* %7, align 4
  %175 = load i32, i32* %6, align 4
  %176 = add nsw i32 %175, 1
  store i32 %176, i32* %6, align 4
  %177 = load i32, i32* %9, align 4
  %178 = sub nsw i32 %177, 1
  store i32 %178, i32* %9, align 4
  %179 = load i32, i32* %8, align 4
  %180 = add nsw i32 %179, 1
  store i32 %180, i32* %8, align 4
  br label %39

181:                                              ; preds = %47
  ret i32 0
}

declare dso_local i32 @__isoc99_scanf(i8*, ...) #1

declare dso_local i32 @printf(i8*, ...) #1


!llvm.module.flags = !{!0}
!llvm.ident = !{!1}

!0 = !{i32 1, !"wchar_size", i32 4}
!1 = !{!"clang version 10.0.0-4ubuntu1 "}
